target datalayout = "e-m:e-p270:32:32-p271:32:32-p272:64:64-i64:64-i128:128-f80:128-n8:16:32:64-S128"
target triple = "x86_64-pc-linux-gnu"

%"class.std::basic_ostream" = type { ptr, %"class.std::basic_ios" }
%"class.std::basic_ios" = type { %"class.std::ios_base", ptr, i8, i8, ptr, ptr, ptr, ptr }
%"class.std::ios_base" = type { ptr, i64, i64, i32, i32, i32, ptr, %"struct.std::ios_base::_Words", [8 x %"struct.std::ios_base::_Words"], i32, ptr, %"class.std::locale" }
%"struct.std::ios_base::_Words" = type { ptr, i64 }
%"class.std::locale" = type { ptr }
%class.DFSProgramGenerator = type { %class.AbsProgramGenerator, i32, ptr, i64, i64, ptr }
%class.AbsProgramGenerator = type { ptr }
%"class.std::__cxx11::basic_string" = type { %"struct.std::__cxx11::basic_string<char>::_Alloc_hider", i64, %union.anon }
%"struct.std::__cxx11::basic_string<char>::_Alloc_hider" = type { ptr }
%union.anon = type { i64, [8 x i8] }
%class.DFSRndNumGenerator = type { %class.AbsRndNumGenerator, %"class.std::__cxx11::basic_string", i32, i32, i8, ptr, i8, %"class.std::vector" }
%class.AbsRndNumGenerator = type { ptr }
%"class.std::vector" = type { %"struct.std::_Vector_base" }
%"struct.std::_Vector_base" = type { %"struct.std::_Vector_base<DFSRndNumGenerator::SearchState *, std::allocator<DFSRndNumGenerator::SearchState *>>::_Vector_impl" }
%"struct.std::_Vector_base<DFSRndNumGenerator::SearchState *, std::allocator<DFSRndNumGenerator::SearchState *>>::_Vector_impl" = type { %"struct.std::_Vector_base<DFSRndNumGenerator::SearchState *, std::allocator<DFSRndNumGenerator::SearchState *>>::_Vector_impl_data" }
%"struct.std::_Vector_base<DFSRndNumGenerator::SearchState *, std::allocator<DFSRndNumGenerator::SearchState *>>::_Vector_impl_data" = type { ptr, ptr, ptr }

@_ZTI18AbsRndNumGenerator = external constant ptr
@_ZTI18DFSRndNumGenerator = external constant ptr
@_ZSt4cout = external global %"class.std::basic_ostream", align 8
@_ZN5Error8r_error_E = external global i32, align 4

; Function Attrs: mustprogress nounwind uwtable
define linkonce_odr dso_local noundef i32 @_ZN5Error9get_errorEv() #5 comdat align 2 {
  %1 = load i32, ptr @_ZN5Error8r_error_E, align 4
  ret i32 %1
}

; Function Attrs: mustprogress nounwind uwtable
define linkonce_odr dso_local void @_ZN5Error9set_errorEi(i32 noundef %0) #5 comdat align 2 {
  %2 = alloca i32, align 4
  store i32 %0, ptr %2, align 4
  %3 = load i32, ptr %2, align 4
  store i32 %3, ptr @_ZN5Error8r_error_E, align 4
  ret void
}

; Function Attrs: mustprogress nounwind uwtable
define linkonce_odr dso_local noundef zeroext i1 @_ZN18DFSRndNumGenerator12get_all_doneEv(ptr noundef nonnull align 8 dereferenceable(96) %0) #5 comdat align 2 {
  %2 = alloca ptr, align 8
  store ptr %0, ptr %2, align 8
  %3 = load ptr, ptr %2, align 8
  %4 = getelementptr inbounds %class.DFSRndNumGenerator, ptr %3, i32 0, i32 4
  %5 = load i8, ptr %4, align 8
  %6 = trunc i8 %5 to i1
  ret i1 %6
}

; Function Attrs: mustprogress uwtable
define dso_local void @_ZN19DFSProgramGenerator11goGeneratorEv(ptr noundef nonnull align 8 dereferenceable(48) %0) unnamed_addr #4 align 2 {
  %2 = alloca ptr, align 8
  %3 = alloca ptr, align 8
  store ptr %0, ptr %2, align 8
  %4 = load ptr, ptr %2, align 8
  %5 = call noundef ptr @_ZN12RandomNumber18GetRndNumGeneratorEv()
  %6 = icmp eq ptr %5, null
  br i1 %6, label %9, label %7

7:                                                ; preds = %1
  %8 = call ptr @__dynamic_cast(ptr %5, ptr @_ZTI18AbsRndNumGenerator, ptr @_ZTI18DFSRndNumGenerator, i64 0) #3
  br label %10

9:                                                ; preds = %1
  br label %10

10:                                               ; preds = %9, %7
  %11 = phi ptr [ %8, %7 ], [ null, %9 ]
  store ptr %11, ptr %3, align 8
  call void @_Z16GenerateAllTypesv()
  %12 = getelementptr inbounds %class.DFSProgramGenerator, ptr %4, i32 0, i32 5
  %13 = load ptr, ptr %12, align 8
  %14 = load ptr, ptr %13, align 8
  %15 = getelementptr inbounds ptr, ptr %14, i64 3
  %16 = load ptr, ptr %15, align 8
  call void %16(ptr noundef nonnull align 8 dereferenceable(8) %13, ptr noundef nonnull align 8 dereferenceable(8) @_ZSt4cout)
  br label %17

17:                                               ; preds = %44, %10
  %18 = load ptr, ptr %3, align 8
  %19 = call noundef zeroext i1 @_ZN18DFSRndNumGenerator12get_all_doneEv(ptr noundef nonnull align 8 dereferenceable(96) %18)
  %20 = xor i1 %19, true
  br i1 %20, label %21, label %46

21:                                               ; preds = %17
  call void @_ZN5Error9set_errorEi(i32 noundef 0)
  call void @_Z17GenerateFunctionsv()
  %22 = call noundef i32 @_ZN5Error9get_errorEv()
  %23 = icmp eq i32 %22, 0
  br i1 %23, label %24, label %44

24:                                               ; preds = %21
  %25 = getelementptr inbounds %class.DFSProgramGenerator, ptr %4, i32 0, i32 5
  %26 = load ptr, ptr %25, align 8
  %27 = getelementptr inbounds %class.DFSProgramGenerator, ptr %4, i32 0, i32 1
  %28 = load i32, ptr %27, align 8
  %29 = getelementptr inbounds %class.DFSProgramGenerator, ptr %4, i32 0, i32 2
  %30 = load ptr, ptr %29, align 8
  %31 = getelementptr inbounds %class.DFSProgramGenerator, ptr %4, i32 0, i32 3
  %32 = load i64, ptr %31, align 8
  %33 = load ptr, ptr %26, align 8
  %34 = getelementptr inbounds ptr, ptr %33, i64 2
  %35 = load ptr, ptr %34, align 8
  call void %35(ptr noundef nonnull align 8 dereferenceable(8) %26, i32 noundef %28, ptr noundef %30, i64 noundef %32)
  %36 = getelementptr inbounds %class.DFSProgramGenerator, ptr %4, i32 0, i32 5
  %37 = load ptr, ptr %36, align 8
  %38 = load ptr, ptr %37, align 8
  %39 = getelementptr inbounds ptr, ptr %38, i64 4
  %40 = load ptr, ptr %39, align 8
  call void %40(ptr noundef nonnull align 8 dereferenceable(8) %37)
  call void @_ZN9OutputMgr15really_outputlnERSo(ptr noundef nonnull align 8 dereferenceable(8) @_ZSt4cout)
  %41 = getelementptr inbounds %class.DFSProgramGenerator, ptr %4, i32 0, i32 4
  %42 = load i64, ptr %41, align 8
  %43 = add nsw i64 %42, 1
  store i64 %43, ptr %41, align 8
  br label %44

44:                                               ; preds = %24, %21
  %45 = load ptr, ptr %3, align 8
  call void @_ZN18DFSRndNumGenerator11reset_stateEv(ptr noundef nonnull align 8 dereferenceable(96) %45)
  call void @_ZN8Function14doFinalizationEv()
  call void @_ZN16VariableSelector14doFinalizationEv()
  call void @_Z12reset_gensymv()
  call void @_ZN15PartialExpander19restore_init_valuesEv()
  br label %17, !llvm.loop !5

46:                                               ; preds = %17
  ret void
}