; Function Attrs: mustprogress uwtable
define dso_local void @_ZN19DFSProgramGenerator11goGeneratorEv(ptr nocapture noundef nonnull align 8 dereferenceable(48) %0) unnamed_addr #3 align 2 {
  %2 = tail call noundef ptr @_ZN12RandomNumber18GetRndNumGeneratorEv()
  %3 = icmp eq ptr %2, null
  br i1 %3, label %6, label %4

4:                                                ; preds = %1
  %5 = tail call ptr @__dynamic_cast(ptr nonnull %2, ptr nonnull @_ZTI18AbsRndNumGenerator, ptr nonnull @_ZTI18DFSRndNumGenerator, i64 0) #10
  br label %6

6:                                                ; preds = %1, %4
  %7 = phi ptr [ %5, %4 ], [ null, %1 ]
  tail call void @_Z16GenerateAllTypesv()
  %8 = getelementptr inbounds i8, ptr %0, i64 40
  %9 = load ptr, ptr %8, align 8
  %10 = load ptr, ptr %9, align 8
  %11 = getelementptr inbounds i8, ptr %10, i64 24
  %12 = load ptr, ptr %11, align 8
  tail call void %12(ptr noundef nonnull align 8 dereferenceable(8) %9, ptr noundef nonnull align 8 dereferenceable(8) @_ZSt4cout)
  %13 = getelementptr inbounds i8, ptr %7, i64 48
  %14 = load i8, ptr %13, align 8
  %15 = and i8 %14, 1
  %.not3 = icmp eq i8 %15, 0
  br i1 %.not3, label %.lr.ph, label %._crit_edge

.lr.ph:                                           ; preds = %6
  %16 = getelementptr inbounds i8, ptr %0, i64 8
  %17 = getelementptr inbounds i8, ptr %0, i64 16
  %18 = getelementptr inbounds i8, ptr %0, i64 24
  %19 = getelementptr inbounds i8, ptr %0, i64 32
  br label %20

20:                                               ; preds = %.lr.ph, %37
  store i32 0, ptr @_ZN5Error8r_error_E, align 4
  tail call void @_Z17GenerateFunctionsv()
  %21 = load i32, ptr @_ZN5Error8r_error_E, align 4
  %22 = icmp eq i32 %21, 0
  br i1 %22, label %23, label %37

23:                                               ; preds = %20
  %24 = load ptr, ptr %8, align 8
  %25 = load i32, ptr %16, align 8
  %26 = load ptr, ptr %17, align 8
  %27 = load i64, ptr %18, align 8
  %28 = load ptr, ptr %24, align 8
  %29 = getelementptr inbounds i8, ptr %28, i64 16
  %30 = load ptr, ptr %29, align 8
  tail call void %30(ptr noundef nonnull align 8 dereferenceable(8) %24, i32 noundef %25, ptr noundef %26, i64 noundef %27)
  %31 = load ptr, ptr %8, align 8
  %32 = load ptr, ptr %31, align 8
  %33 = getelementptr inbounds i8, ptr %32, i64 32
  %34 = load ptr, ptr %33, align 8
  tail call void %34(ptr noundef nonnull align 8 dereferenceable(8) %31)
  tail call void @_ZN9OutputMgr15really_outputlnERSo(ptr noundef nonnull align 8 dereferenceable(8) @_ZSt4cout)
  %35 = load i64, ptr %19, align 8
  %36 = add nsw i64 %35, 1
  store i64 %36, ptr %19, align 8
  br label %37

37:                                               ; preds = %23, %20
  tail call void @_ZN18DFSRndNumGenerator11reset_stateEv(ptr noundef nonnull align 8 dereferenceable(96) %7)
  tail call void @_ZN8Function14doFinalizationEv()
  tail call void @_ZN16VariableSelector14doFinalizationEv()
  tail call void @_Z12reset_gensymv()
  tail call void @_ZN15PartialExpander19restore_init_valuesEv()
  %38 = load i8, ptr %13, align 8
  %39 = and i8 %38, 1
  %.not = icmp eq i8 %39, 0
  br i1 %.not, label %20, label %._crit_edge, !llvm.loop !5

._crit_edge:                                      ; preds = %37, %6
  ret void
}